target datalayout = "e-m:e-p270:32:32-p271:32:32-p272:64:64-i64:64-i128:128-f80:128-n8:16:32:64-S128"
target triple = "x86_64-pc-linux-gnu"

%struct.test_fixture = type { ptr, ptr, ptr, ptr, ptr, ptr, i32, ptr, ptr, ptr, i32, i32, i32 }

@prot_RSA_key = internal global ptr null, align 8
@libctx = internal global ptr null, align 8
@.str.14 = private unnamed_addr constant [35 x i8] c"../openssl/test/cmp_protect_test.c\00", align 1
@ir_protected_f = internal global ptr null, align 8
@.str.44 = private unnamed_addr constant [30 x i8] c"test_cmp_calc_protection_pkey\00", align 1
@.str.67 = private unnamed_addr constant [55 x i8] c"OSSL_CMP_CTX_set1_pkey(fixture->cmp_ctx, prot_RSA_key)\00", align 1
@.str.68 = private unnamed_addr constant [51 x i8] c"fixture->msg = load_pkimsg(ir_protected_f, libctx)\00", align 1

; Function Attrs: inlinehint nounwind uwtable
define internal ptr @ossl_check_X509_sk_type(ptr noundef %0) #3 {
  %2 = alloca ptr, align 8
  store ptr %0, ptr %2, align 8, !tbaa !54
  %3 = load ptr, ptr %2, align 8, !tbaa !54
  ret ptr %3
}

; Function Attrs: nounwind uwtable
define internal void @tear_down(ptr noundef %0) #0 {
  %2 = alloca ptr, align 8
  store ptr %0, ptr %2, align 8, !tbaa !19
  %3 = load ptr, ptr %2, align 8, !tbaa !19
  %4 = icmp ne ptr %3, null
  br i1 %4, label %5, label %27

5:                                                ; preds = %1
  %6 = load ptr, ptr %2, align 8, !tbaa !19
  %7 = getelementptr inbounds nuw %struct.test_fixture, ptr %6, i32 0, i32 1
  %8 = load ptr, ptr %7, align 8, !tbaa !40
  call void @OSSL_CMP_CTX_free(ptr noundef %8)
  %9 = load ptr, ptr %2, align 8, !tbaa !19
  %10 = getelementptr inbounds nuw %struct.test_fixture, ptr %9, i32 0, i32 2
  %11 = load ptr, ptr %10, align 8, !tbaa !23
  call void @OSSL_CMP_MSG_free(ptr noundef %11)
  %12 = load ptr, ptr %2, align 8, !tbaa !19
  %13 = getelementptr inbounds nuw %struct.test_fixture, ptr %12, i32 0, i32 3
  %14 = load ptr, ptr %13, align 8, !tbaa !51
  call void @OSSL_CMP_PKISI_free(ptr noundef %14)
  %15 = load ptr, ptr %2, align 8, !tbaa !19
  %16 = getelementptr inbounds nuw %struct.test_fixture, ptr %15, i32 0, i32 5
  %17 = load ptr, ptr %16, align 8, !tbaa !52
  call void @CRYPTO_free(ptr noundef %17, ptr noundef @.str.14, i32 noundef 46)
  %18 = load ptr, ptr %2, align 8, !tbaa !19
  %19 = getelementptr inbounds nuw %struct.test_fixture, ptr %18, i32 0, i32 8
  %20 = load ptr, ptr %19, align 8, !tbaa !47
  %21 = call ptr @ossl_check_X509_sk_type(ptr noundef %20)
  call void @OPENSSL_sk_free(ptr noundef %21)
  %22 = load ptr, ptr %2, align 8, !tbaa !19
  %23 = getelementptr inbounds nuw %struct.test_fixture, ptr %22, i32 0, i32 9
  %24 = load ptr, ptr %23, align 8, !tbaa !48
  %25 = call ptr @ossl_check_X509_sk_type(ptr noundef %24)
  call void @OPENSSL_sk_free(ptr noundef %25)
  %26 = load ptr, ptr %2, align 8, !tbaa !19
  call void @CRYPTO_free(ptr noundef %26, ptr noundef @.str.14, i32 noundef 50)
  br label %27

27:                                               ; preds = %5, %1
  ret void
}

; Function Attrs: nounwind uwtable
define internal i32 @test_cmp_calc_protection_pkey() #0 {
  %1 = alloca i32, align 4
  %2 = alloca ptr, align 8
  %3 = alloca i32, align 4
  %4 = alloca i32, align 4
  call void @llvm.lifetime.start.p0(i64 8, ptr %2) #5
  %5 = call ptr @set_up(ptr noundef @.str.44)
  store ptr %5, ptr %2, align 8, !tbaa !19
  call void @llvm.lifetime.start.p0(i64 4, ptr %3) #5
  store i32 0, ptr %3, align 4, !tbaa !21
  %6 = load ptr, ptr %2, align 8, !tbaa !19
  %7 = icmp eq ptr %6, null
  br i1 %7, label %8, label %9

8:                                                ; preds = %0
  store i32 0, ptr %1, align 4
  store i32 1, ptr %4, align 4
  br label %41

9:                                                ; preds = %0
  %10 = load ptr, ptr @prot_RSA_key, align 8, !tbaa !4
  %11 = load ptr, ptr %2, align 8, !tbaa !19
  %12 = getelementptr inbounds nuw %struct.test_fixture, ptr %11, i32 0, i32 4
  store ptr %10, ptr %12, align 8, !tbaa !39
  %13 = load ptr, ptr %2, align 8, !tbaa !19
  %14 = getelementptr inbounds nuw %struct.test_fixture, ptr %13, i32 0, i32 1
  %15 = load ptr, ptr %14, align 8, !tbaa !40
  %16 = load ptr, ptr @prot_RSA_key, align 8, !tbaa !4
  %17 = call i32 @OSSL_CMP_CTX_set1_pkey(ptr noundef %15, ptr noundef %16)
  %18 = icmp ne i32 %17, 0
  %19 = zext i1 %18 to i32
  %20 = call i32 @test_true(ptr noundef @.str.14, i32 noundef 152, ptr noundef @.str.67, i32 noundef %19)
  %21 = icmp ne i32 %20, 0
  br i1 %21, label %22, label %30

22:                                               ; preds = %9
  %23 = load ptr, ptr @ir_protected_f, align 8, !tbaa !17
  %24 = load ptr, ptr @libctx, align 8, !tbaa !15
  %25 = call ptr @load_pkimsg(ptr noundef %23, ptr noundef %24)
  %26 = load ptr, ptr %2, align 8, !tbaa !19
  %27 = getelementptr inbounds nuw %struct.test_fixture, ptr %26, i32 0, i32 2
  store ptr %25, ptr %27, align 8, !tbaa !23
  %28 = call i32 @test_ptr(ptr noundef @.str.14, i32 noundef 153, ptr noundef @.str.68, ptr noundef %25)
  %29 = icmp ne i32 %28, 0
  br i1 %29, label %32, label %30

30:                                               ; preds = %22, %9
  %31 = load ptr, ptr %2, align 8, !tbaa !19
  call void @tear_down(ptr noundef %31)
  store ptr null, ptr %2, align 8, !tbaa !19
  br label %32

32:                                               ; preds = %30, %22
  %33 = load ptr, ptr %2, align 8, !tbaa !19
  %34 = icmp ne ptr %33, null
  br i1 %34, label %35, label %39

35:                                               ; preds = %32
  %36 = load ptr, ptr %2, align 8, !tbaa !19
  %37 = call i32 @execute_calc_protection_signature_test(ptr noundef %36)
  store i32 %37, ptr %3, align 4, !tbaa !21
  %38 = load ptr, ptr %2, align 8, !tbaa !19
  call void @tear_down(ptr noundef %38)
  br label %39

39:                                               ; preds = %35, %32
  %40 = load i32, ptr %3, align 4, !tbaa !21
  store i32 %40, ptr %1, align 4
  store i32 1, ptr %4, align 4
  br label %41

41:                                               ; preds = %39, %8
  call void @llvm.lifetime.end.p0(i64 4, ptr %3) #5
  call void @llvm.lifetime.end.p0(i64 8, ptr %2) #5
  %42 = load i32, ptr %1, align 4
  ret i32 %42
}